; Function Attrs: mustprogress ssp uwtable
define void @_ZN6open3d13visualization30ViewControlWithCustomAnimation17ChangeFieldOfViewEd(ptr noundef nonnull align 16 dereferenceable(816) %0, double noundef %1) unnamed_addr #1 align 2 {
  %3 = getelementptr inbounds nuw i8, ptr %0, i64 728
  %4 = load i32, ptr %3, align 8, !tbaa !26
  %5 = icmp eq i32 %4, 0
  br i1 %5, label %6, label %23

6:                                                ; preds = %2
  %7 = getelementptr inbounds nuw i8, ptr %0, i64 744
  %8 = load ptr, ptr %7, align 8, !tbaa !53
  %9 = getelementptr inbounds nuw i8, ptr %0, i64 752
  %10 = load ptr, ptr %9, align 16, !tbaa !53
  %11 = icmp eq ptr %8, %10
  br i1 %11, label %22, label %12

12:                                               ; preds = %6
  %13 = tail call noundef i32 @_ZNK6open3d13visualization11ViewControl17GetProjectionTypeEv(ptr noundef nonnull align 16 dereferenceable(728) %0)
  %14 = icmp eq i32 %13, 0
  br i1 %14, label %15, label %21

15:                                               ; preds = %12
  %16 = getelementptr inbounds nuw i8, ptr %0, i64 264
  %17 = load double, ptr %16, align 8, !tbaa !54
  tail call void @_ZN6open3d13visualization11ViewControl17ChangeFieldOfViewEd(ptr noundef nonnull align 16 dereferenceable(728) %0, double noundef %1)
  %18 = tail call noundef i32 @_ZNK6open3d13visualization11ViewControl17GetProjectionTypeEv(ptr noundef nonnull align 16 dereferenceable(728) %0)
  %19 = icmp eq i32 %18, 1
  br i1 %19, label %20, label %21

20:                                               ; preds = %15
  store double %17, ptr %16, align 8, !tbaa !54
  br label %21

21:                                               ; preds = %15, %20, %12
  tail call void @_ZN6open3d13visualization11ViewControl23SetProjectionParametersEv(ptr noundef nonnull align 16 dereferenceable(728) %0)
  br label %23

22:                                               ; preds = %6
  tail call void @_ZN6open3d13visualization11ViewControl17ChangeFieldOfViewEd(ptr noundef nonnull align 16 dereferenceable(728) %0, double noundef %1)
  br label %23

23:                                               ; preds = %21, %22, %2
  ret void
}